target datalayout = "e-m:e-p270:32:32-p271:32:32-p272:64:64-i64:64-i128:128-f80:128-n8:16:32:64-S128"
target triple = "x86_64-pc-linux-gnu"

%class.VM_Operation = type { ptr, ptr }
%union.jvalue = type { i64 }
%class.VM_BaseGetOrSetLocal = type { %class.VM_Operation, ptr, i32, i32, i8, %union.jvalue, ptr, i8, i8, i32 }
%class.VM_GetOrSetLocal = type { %class.VM_BaseGetOrSetLocal, ptr, %class.EscapeBarrier }
%class.EscapeBarrier = type <{ ptr, ptr, i8, [7 x i8] }>

@_ZN20VM_BaseGetOrSetLocal14_DEFAULT_VALUEE = hidden constant { i8, [7 x i8] } { i8 0, [7 x i8] undef }, align 8
@_ZTV12VM_Operation = external unnamed_addr constant { [12 x ptr] }, align 8
@UseJVMCICompiler = external global i8, align 1
@DoEscapeAnalysis = external global i8, align 1

; Function Attrs: mustprogress nounwind uwtable
define linkonce_odr hidden void @_ZN12VM_OperationC2Ev(ptr noundef nonnull align 8 dereferenceable(16) %0) unnamed_addr #1 comdat align 2 {
  %2 = alloca ptr, align 8
  store ptr %0, ptr %2, align 8
  %3 = load ptr, ptr %2, align 8
  store ptr getelementptr inbounds inrange(-16, 80) ({ [12 x ptr] }, ptr @_ZTV12VM_Operation, i32 0, i32 0, i32 2), ptr %3, align 8
  %4 = getelementptr inbounds %class.VM_Operation, ptr %3, i32 0, i32 1
  store ptr null, ptr %4, align 8
  ret void
}

; Function Attrs: mustprogress nounwind uwtable
define linkonce_odr hidden void @_ZN13EscapeBarrierC2EbP10JavaThreadS1_(ptr noundef nonnull align 8 dereferenceable(17) %0, i1 noundef zeroext %1, ptr noundef %2, ptr noundef %3) unnamed_addr #1 comdat align 2 {
  %5 = alloca ptr, align 8
  %6 = alloca i8, align 1
  %7 = alloca ptr, align 8
  %8 = alloca ptr, align 8
  store ptr %0, ptr %5, align 8
  %9 = zext i1 %1 to i8
  store i8 %9, ptr %6, align 1
  store ptr %2, ptr %7, align 8
  store ptr %3, ptr %8, align 8
  %10 = load ptr, ptr %5, align 8
  %11 = getelementptr inbounds %class.EscapeBarrier, ptr %10, i32 0, i32 0
  %12 = load ptr, ptr %7, align 8
  store ptr %12, ptr %11, align 8
  %13 = getelementptr inbounds %class.EscapeBarrier, ptr %10, i32 0, i32 1
  %14 = load ptr, ptr %8, align 8
  store ptr %14, ptr %13, align 8
  %15 = getelementptr inbounds %class.EscapeBarrier, ptr %10, i32 0, i32 2
  %16 = load i8, ptr %6, align 1
  %17 = trunc i8 %16 to i1
  br i1 %17, label %18, label %26

18:                                               ; preds = %4
  %19 = load i8, ptr @UseJVMCICompiler, align 1
  %20 = trunc i8 %19 to i1
  br i1 %20, label %24, label %21

21:                                               ; preds = %18
  %22 = load i8, ptr @DoEscapeAnalysis, align 1
  %23 = trunc i8 %22 to i1
  br label %24

24:                                               ; preds = %21, %18
  %25 = phi i1 [ true, %18 ], [ %23, %21 ]
  br label %26

26:                                               ; preds = %24, %4
  %27 = phi i1 [ false, %4 ], [ %25, %24 ]
  %28 = zext i1 %27 to i8
  store i8 %28, ptr %15, align 8
  %29 = getelementptr inbounds %class.EscapeBarrier, ptr %10, i32 0, i32 2
  %30 = load i8, ptr %29, align 8
  %31 = trunc i8 %30 to i1
  br i1 %31, label %32, label %33

32:                                               ; preds = %26
  call void @_ZN13EscapeBarrier20sync_and_suspend_oneEv(ptr noundef nonnull align 8 dereferenceable(17) %10)
  br label %33

33:                                               ; preds = %32, %26
  ret void
}

; Function Attrs: mustprogress nounwind uwtable
define hidden void @_ZN20VM_BaseGetOrSetLocalC2EP10JavaThreadii9BasicType6jvaluebb(ptr noundef nonnull align 8 dereferenceable(64) %0, ptr noundef %1, i32 noundef %2, i32 noundef %3, i8 noundef zeroext %4, i64 %5, i1 noundef zeroext %6, i1 noundef zeroext %7) unnamed_addr #1 align 2 {
  %9 = alloca %union.jvalue, align 8
  %10 = alloca ptr, align 8
  %11 = alloca ptr, align 8
  %12 = alloca i32, align 4
  %13 = alloca i32, align 4
  %14 = alloca i8, align 1
  %15 = alloca i8, align 1
  %16 = alloca i8, align 1
  %17 = getelementptr inbounds %union.jvalue, ptr %9, i32 0, i32 0
  store i64 %5, ptr %17, align 8
  store ptr %0, ptr %10, align 8
  store ptr %1, ptr %11, align 8
  store i32 %2, ptr %12, align 4
  store i32 %3, ptr %13, align 4
  store i8 %4, ptr %14, align 1
  %18 = zext i1 %6 to i8
  store i8 %18, ptr %15, align 1
  %19 = zext i1 %7 to i8
  store i8 %19, ptr %16, align 1
  %20 = load ptr, ptr %10, align 8
  call void @_ZN12VM_OperationC2Ev(ptr noundef nonnull align 8 dereferenceable(16) %20)
  store ptr getelementptr inbounds inrange(-16, 96) ({ [14 x ptr] }, ptr @_ZTV20VM_BaseGetOrSetLocal, i32 0, i32 0, i32 2), ptr %20, align 8
  %21 = getelementptr inbounds %class.VM_BaseGetOrSetLocal, ptr %20, i32 0, i32 1
  %22 = load ptr, ptr %11, align 8
  store ptr %22, ptr %21, align 8
  %23 = getelementptr inbounds %class.VM_BaseGetOrSetLocal, ptr %20, i32 0, i32 2
  %24 = load i32, ptr %12, align 4
  store i32 %24, ptr %23, align 8
  %25 = getelementptr inbounds %class.VM_BaseGetOrSetLocal, ptr %20, i32 0, i32 3
  %26 = load i32, ptr %13, align 4
  store i32 %26, ptr %25, align 4
  %27 = getelementptr inbounds %class.VM_BaseGetOrSetLocal, ptr %20, i32 0, i32 4
  %28 = load i8, ptr %14, align 1
  store i8 %28, ptr %27, align 8
  %29 = getelementptr inbounds %class.VM_BaseGetOrSetLocal, ptr %20, i32 0, i32 5
  call void @llvm.memcpy.p0.p0.i64(ptr align 8 %29, ptr align 8 %9, i64 8, i1 false)
  %30 = getelementptr inbounds %class.VM_BaseGetOrSetLocal, ptr %20, i32 0, i32 6
  store ptr null, ptr %30, align 8
  %31 = getelementptr inbounds %class.VM_BaseGetOrSetLocal, ptr %20, i32 0, i32 7
  %32 = load i8, ptr %15, align 1
  %33 = trunc i8 %32 to i1
  %34 = zext i1 %33 to i8
  store i8 %34, ptr %31, align 8
  %35 = getelementptr inbounds %class.VM_BaseGetOrSetLocal, ptr %20, i32 0, i32 8
  %36 = load i8, ptr %16, align 1
  %37 = trunc i8 %36 to i1
  %38 = zext i1 %37 to i8
  store i8 %38, ptr %35, align 1
  %39 = getelementptr inbounds %class.VM_BaseGetOrSetLocal, ptr %20, i32 0, i32 9
  store i32 0, ptr %39, align 4
  ret void
}

; Function Attrs: mustprogress nounwind uwtable
define hidden void @_ZN16VM_GetOrSetLocalC2EP10JavaThreadS1_iib(ptr noundef nonnull align 8 dereferenceable(96) %0, ptr noundef %1, ptr noundef %2, i32 noundef %3, i32 noundef %4, i1 noundef zeroext %5) unnamed_addr #1 align 2 {
  %7 = alloca ptr, align 8
  %8 = alloca ptr, align 8
  %9 = alloca ptr, align 8
  %10 = alloca i32, align 4
  %11 = alloca i32, align 4
  %12 = alloca i8, align 1
  %13 = alloca %union.jvalue, align 8
  store ptr %0, ptr %7, align 8
  store ptr %1, ptr %8, align 8
  store ptr %2, ptr %9, align 8
  store i32 %3, ptr %10, align 4
  store i32 %4, ptr %11, align 4
  %14 = zext i1 %5 to i8
  store i8 %14, ptr %12, align 1
  %15 = load ptr, ptr %7, align 8
  %16 = load ptr, ptr %9, align 8
  %17 = load i32, ptr %10, align 4
  %18 = load i32, ptr %11, align 4
  call void @llvm.memcpy.p0.p0.i64(ptr align 8 %13, ptr align 8 @_ZN20VM_BaseGetOrSetLocal14_DEFAULT_VALUEE, i64 8, i1 false)
  %19 = load i8, ptr %12, align 1
  %20 = trunc i8 %19 to i1
  %21 = getelementptr inbounds %union.jvalue, ptr %13, i32 0, i32 0
  %22 = load i64, ptr %21, align 8
  call void @_ZN20VM_BaseGetOrSetLocalC2EP10JavaThreadii9BasicType6jvaluebb(ptr noundef nonnull align 8 dereferenceable(64) %15, ptr noundef %16, i32 noundef %17, i32 noundef %18, i8 noundef zeroext 12, i64 %22, i1 noundef zeroext false, i1 noundef zeroext %20)
  store ptr getelementptr inbounds inrange(-16, 96) ({ [14 x ptr] }, ptr @_ZTV16VM_GetOrSetLocal, i32 0, i32 0, i32 2), ptr %15, align 8
  %23 = getelementptr inbounds %class.VM_GetOrSetLocal, ptr %15, i32 0, i32 1
  %24 = load ptr, ptr %8, align 8
  store ptr %24, ptr %23, align 8
  %25 = getelementptr inbounds %class.VM_GetOrSetLocal, ptr %15, i32 0, i32 2
  %26 = load ptr, ptr %9, align 8
  %27 = load ptr, ptr %8, align 8
  call void @_ZN13EscapeBarrierC2EbP10JavaThreadS1_(ptr noundef nonnull align 8 dereferenceable(17) %25, i1 noundef zeroext true, ptr noundef %26, ptr noundef %27)
  ret void
}

; Function Attrs: mustprogress nounwind uwtable
define hidden void @_ZN14VM_GetReceiverC2EP10JavaThreadS1_ib(ptr noundef nonnull align 8 dereferenceable(96) %0, ptr noundef %1, ptr noundef %2, i32 noundef %3, i1 noundef zeroext %4) unnamed_addr #1 align 2 {
  %6 = alloca ptr, align 8
  %7 = alloca ptr, align 8
  %8 = alloca ptr, align 8
  %9 = alloca i32, align 4
  %10 = alloca i8, align 1
  store ptr %0, ptr %6, align 8
  store ptr %1, ptr %7, align 8
  store ptr %2, ptr %8, align 8
  store i32 %3, ptr %9, align 4
  %11 = zext i1 %4 to i8
  store i8 %11, ptr %10, align 1
  %12 = load ptr, ptr %6, align 8
  %13 = load ptr, ptr %7, align 8
  %14 = load ptr, ptr %8, align 8
  %15 = load i32, ptr %9, align 4
  %16 = load i8, ptr %10, align 1
  %17 = trunc i8 %16 to i1
  call void @_ZN16VM_GetOrSetLocalC2EP10JavaThreadS1_iib(ptr noundef nonnull align 8 dereferenceable(96) %12, ptr noundef %13, ptr noundef %14, i32 noundef %15, i32 noundef 0, i1 noundef zeroext %17)
  store ptr getelementptr inbounds inrange(-16, 96) ({ [14 x ptr] }, ptr @_ZTV14VM_GetReceiver, i32 0, i32 0, i32 2), ptr %12, align 8
  ret void
}