; Function Attrs: mustprogress nounwind uwtable
define hidden void @_ZN14VM_GetReceiverC2EP10JavaThreadS1_ib(ptr noundef nonnull align 8 dereferenceable(96) %0, ptr noundef %1, ptr noundef %2, i32 noundef %3, i1 noundef zeroext %4) unnamed_addr #0 align 2 {
  %6 = zext i1 %4 to i8
  %7 = getelementptr inbounds i8, ptr %0, i64 8
  store ptr null, ptr %7, align 8
  %8 = getelementptr inbounds i8, ptr %0, i64 16
  store ptr %2, ptr %8, align 8
  %9 = getelementptr inbounds i8, ptr %0, i64 24
  store i32 %3, ptr %9, align 8
  %10 = getelementptr inbounds i8, ptr %0, i64 28
  store i32 0, ptr %10, align 4
  %11 = getelementptr inbounds i8, ptr %0, i64 32
  store i8 12, ptr %11, align 8
  %12 = getelementptr inbounds i8, ptr %0, i64 40
  %13 = getelementptr inbounds i8, ptr %0, i64 57
  tail call void @llvm.memset.p0.i64(ptr noundef nonnull align 8 dereferenceable(17) %12, i8 0, i64 17, i1 false)
  store i8 %6, ptr %13, align 1
  %14 = getelementptr inbounds i8, ptr %0, i64 60
  store i32 0, ptr %14, align 4
  store ptr getelementptr inbounds inrange(-16, 96) (i8, ptr @_ZTV16VM_GetOrSetLocal, i64 16), ptr %0, align 8
  %15 = getelementptr inbounds i8, ptr %0, i64 64
  store ptr %1, ptr %15, align 8
  %16 = getelementptr inbounds i8, ptr %0, i64 72
  store ptr %2, ptr %16, align 8
  %17 = getelementptr inbounds i8, ptr %0, i64 80
  store ptr %1, ptr %17, align 8
  %18 = getelementptr inbounds i8, ptr %0, i64 88
  %19 = load i8, ptr @UseJVMCICompiler, align 1
  %20 = trunc i8 %19 to i1
  %21 = load i8, ptr @DoEscapeAnalysis, align 1
  %22 = trunc i8 %21 to i1
  %23 = select i1 %20, i1 true, i1 %22
  %24 = zext i1 %23 to i8
  store i8 %24, ptr %18, align 8
  br i1 %23, label %25, label %_ZN16VM_GetOrSetLocalC2EP10JavaThreadS1_iib.exit

25:                                               ; preds = %5
  tail call void @_ZN13EscapeBarrier20sync_and_suspend_oneEv(ptr noundef nonnull align 8 dereferenceable(17) %16) #17
  br label %_ZN16VM_GetOrSetLocalC2EP10JavaThreadS1_iib.exit

_ZN16VM_GetOrSetLocalC2EP10JavaThreadS1_iib.exit: ; preds = %5, %25
  store ptr getelementptr inbounds inrange(-16, 96) (i8, ptr @_ZTV14VM_GetReceiver, i64 16), ptr %0, align 8
  ret void
}